target datalayout = "e-m:e-p270:32:32-p271:32:32-p272:64:64-i64:64-i128:128-f80:128-n8:16:32:64-S128"
target triple = "x86_64-pc-linux-gnu"

%struct.RelMapFile = type { i32, i32, [64 x %struct.RelMapping], i32 }
%struct.RelMapping = type { i32, i32 }

@active_local_updates = internal global %struct.RelMapFile zeroinitializer, align 4
@.str.1 = private unnamed_addr constant [12 x i8] c"relmapper.c\00", align 1
@.str.3 = private unnamed_addr constant [49 x i8] c"could not find temporary mapping for relation %u\00", align 1
@__func__.RelationMapRemoveMapping = private unnamed_addr constant [25 x i8] c"RelationMapRemoveMapping\00", align 1

; Function Attrs: nounwind uwtable
define dso_local void @RelationMapRemoveMapping(i32 noundef %0) #0 {
  %2 = alloca i32, align 4
  %3 = alloca ptr, align 8
  %4 = alloca i32, align 4
  %5 = alloca i32, align 4
  store i32 %0, ptr %2, align 4
  call void @llvm.lifetime.start.p0(i64 8, ptr %3) #8
  store ptr @active_local_updates, ptr %3, align 8
  call void @llvm.lifetime.start.p0(i64 4, ptr %4) #8
  store i32 0, ptr %4, align 4
  br label %6

6:                                                ; preds = %41, %1
  %7 = load i32, ptr %4, align 4
  %8 = load ptr, ptr %3, align 8
  %9 = getelementptr inbounds nuw %struct.RelMapFile, ptr %8, i32 0, i32 1
  %10 = load i32, ptr %9, align 4
  %11 = icmp slt i32 %7, %10
  br i1 %11, label %12, label %44

12:                                               ; preds = %6
  %13 = load i32, ptr %2, align 4
  %14 = load ptr, ptr %3, align 8
  %15 = getelementptr inbounds nuw %struct.RelMapFile, ptr %14, i32 0, i32 2
  %16 = load i32, ptr %4, align 4
  %17 = sext i32 %16 to i64
  %18 = getelementptr inbounds [64 x %struct.RelMapping], ptr %15, i64 0, i64 %17
  %19 = getelementptr inbounds nuw %struct.RelMapping, ptr %18, i32 0, i32 0
  %20 = load i32, ptr %19, align 4
  %21 = icmp eq i32 %13, %20
  br i1 %21, label %22, label %40

22:                                               ; preds = %12
  %23 = load ptr, ptr %3, align 8
  %24 = getelementptr inbounds nuw %struct.RelMapFile, ptr %23, i32 0, i32 2
  %25 = load i32, ptr %4, align 4
  %26 = sext i32 %25 to i64
  %27 = getelementptr inbounds [64 x %struct.RelMapping], ptr %24, i64 0, i64 %26
  %28 = load ptr, ptr %3, align 8
  %29 = getelementptr inbounds nuw %struct.RelMapFile, ptr %28, i32 0, i32 2
  %30 = load ptr, ptr %3, align 8
  %31 = getelementptr inbounds nuw %struct.RelMapFile, ptr %30, i32 0, i32 1
  %32 = load i32, ptr %31, align 4
  %33 = sub i32 %32, 1
  %34 = sext i32 %33 to i64
  %35 = getelementptr inbounds [64 x %struct.RelMapping], ptr %29, i64 0, i64 %34
  call void @llvm.memcpy.p0.p0.i64(ptr align 4 %27, ptr align 4 %35, i64 8, i1 false)
  %36 = load ptr, ptr %3, align 8
  %37 = getelementptr inbounds nuw %struct.RelMapFile, ptr %36, i32 0, i32 1
  %38 = load i32, ptr %37, align 4
  %39 = add i32 %38, -1
  store i32 %39, ptr %37, align 4
  store i32 1, ptr %5, align 4
  br label %56

40:                                               ; preds = %12
  br label %41

41:                                               ; preds = %40
  %42 = load i32, ptr %4, align 4
  %43 = add i32 %42, 1
  store i32 %43, ptr %4, align 4
  br label %6, !llvm.loop !18

44:                                               ; preds = %6
  br label %45

45:                                               ; preds = %44
  br i1 true, label %46, label %48

46:                                               ; preds = %45
  %47 = call zeroext i1 @errstart_cold(i32 noundef 21, ptr noundef null) #9
  br i1 %47, label %50, label %53

48:                                               ; preds = %45
  %49 = call zeroext i1 @errstart(i32 noundef 21, ptr noundef null)
  br i1 %49, label %50, label %53

50:                                               ; preds = %48, %46
  %51 = load i32, ptr %2, align 4
  %52 = call i32 (ptr, ...) @errmsg_internal(ptr noundef @.str.3, i32 noundef %51)
  call void @errfinish(ptr noundef @.str.1, i32 noundef 454, ptr noundef @__func__.RelationMapRemoveMapping)
  br label %53

53:                                               ; preds = %50, %48, %46
  unreachable

54:                                               ; No predecessors!
  br label %55

55:                                               ; preds = %54
  store i32 0, ptr %5, align 4
  br label %56

56:                                               ; preds = %55, %22
  call void @llvm.lifetime.end.p0(i64 4, ptr %4) #8
  call void @llvm.lifetime.end.p0(i64 8, ptr %3) #8
  %57 = load i32, ptr %5, align 4
  switch i32 %57, label %59 [
    i32 0, label %58
    i32 1, label %58
  ]

58:                                               ; preds = %56, %56
  ret void

59:                                               ; preds = %56
  unreachable
}