; Function Attrs: nounwind uwtable
define dso_local void @RelationMapRemoveMapping(i32 noundef %0) local_unnamed_addr #2 {
  %2 = load i32, ptr getelementptr inbounds nuw (i8, ptr @active_local_updates, i64 4), align 4
  %3 = icmp sgt i32 %2, 0
  br i1 %3, label %.lr.ph.preheader, label %._crit_edge

.lr.ph.preheader:                                 ; preds = %1
  %wide.trip.count = zext nneg i32 %2 to i64
  br label %.lr.ph

4:                                                ; preds = %.lr.ph
  %indvars.iv.next = add nuw nsw i64 %indvars.iv, 1
  %exitcond.not = icmp eq i64 %indvars.iv.next, %wide.trip.count
  br i1 %exitcond.not, label %._crit_edge, label %.lr.ph, !llvm.loop !16

.lr.ph:                                           ; preds = %.lr.ph.preheader, %4
  %indvars.iv = phi i64 [ 0, %.lr.ph.preheader ], [ %indvars.iv.next, %4 ]
  %5 = getelementptr inbounds nuw [64 x %struct.RelMapping], ptr getelementptr inbounds nuw (i8, ptr @active_local_updates, i64 8), i64 0, i64 %indvars.iv
  %6 = load i32, ptr %5, align 4
  %7 = icmp eq i32 %0, %6
  br i1 %7, label %8, label %4

8:                                                ; preds = %.lr.ph
  %9 = getelementptr inbounds nuw [64 x %struct.RelMapping], ptr getelementptr inbounds nuw (i8, ptr @active_local_updates, i64 8), i64 0, i64 %indvars.iv
  %10 = add nsw i32 %2, -1
  %11 = sext i32 %10 to i64
  %12 = getelementptr inbounds [64 x %struct.RelMapping], ptr getelementptr inbounds nuw (i8, ptr @active_local_updates, i64 8), i64 0, i64 %11
  %13 = load i64, ptr %12, align 4
  store i64 %13, ptr %9, align 4
  store i32 %10, ptr getelementptr inbounds nuw (i8, ptr @active_local_updates, i64 4), align 4
  ret void

._crit_edge:                                      ; preds = %4, %1
  %14 = tail call zeroext i1 @errstart_cold(i32 noundef 21, ptr noundef null) #13
  tail call void @llvm.assume(i1 %14)
  %15 = tail call i32 (ptr, ...) @errmsg_internal(ptr noundef nonnull @.str.3, i32 noundef %0) #12
  tail call void @errfinish(ptr noundef nonnull @.str.1, i32 noundef 454, ptr noundef nonnull @__func__.RelationMapRemoveMapping) #12
  unreachable
}